target datalayout = "e-m:e-p270:32:32-p271:32:32-p272:64:64-i64:64-i128:128-f80:128-n8:16:32:64-S128"
target triple = "x86_64-pc-linux-gnu"

@.str.116 = private unnamed_addr constant [11 x i8] c"Channels: \00", align 1
@.str.117 = private unnamed_addr constant [5 x i8] c"None\00", align 1
@.str.118 = private unnamed_addr constant [3 x i8] c"%d\00", align 1
@.str.119 = private unnamed_addr constant [5 x i8] c", %d\00", align 1
@.str.120 = private unnamed_addr constant [4 x i8] c"-%d\00", align 1

; Function Attrs: nounwind uwtable
define hidden i32 @zdp_parse_chanmask(ptr noundef %0, ptr noundef %1, ptr noundef %2, i32 noundef %3, i32 noundef %4) #0 {
  %6 = alloca ptr, align 8
  %7 = alloca ptr, align 8
  %8 = alloca ptr, align 8
  %9 = alloca i32, align 4
  %10 = alloca i32, align 4
  %11 = alloca i32, align 4
  %12 = alloca i32, align 4
  %13 = alloca i8, align 1
  %14 = alloca ptr, align 8
  store ptr %0, ptr %6, align 8
  store ptr %1, ptr %7, align 8
  store ptr %2, ptr %8, align 8
  store i32 %3, ptr %9, align 4
  store i32 %4, ptr %10, align 4
  %15 = load ptr, ptr %7, align 8
  %16 = load ptr, ptr %8, align 8
  %17 = load i32, ptr %16, align 4
  %18 = call i32 @tvb_get_letohl(ptr noundef %15, i32 noundef %17)
  store i32 %18, ptr %12, align 4
  %19 = load i32, ptr %12, align 4
  %20 = and i32 %19, -134217728
  %21 = lshr i32 %20, 27
  %22 = trunc i32 %21 to i8
  store i8 %22, ptr %13, align 1
  %23 = load i32, ptr %12, align 4
  %24 = and i32 %23, 134217727
  store i32 %24, ptr %12, align 4
  %25 = load ptr, ptr %6, align 8
  %26 = load i32, ptr %9, align 4
  %27 = load ptr, ptr %7, align 8
  %28 = load ptr, ptr %8, align 8
  %29 = load i32, ptr %28, align 4
  %30 = load i8, ptr %13, align 1
  %31 = zext i8 %30 to i32
  %32 = call ptr @proto_tree_add_uint(ptr noundef %25, i32 noundef %26, ptr noundef %27, i32 noundef %29, i32 noundef 4, i32 noundef %31)
  %33 = load ptr, ptr %6, align 8
  %34 = load i32, ptr %10, align 4
  %35 = load ptr, ptr %7, align 8
  %36 = load ptr, ptr %8, align 8
  %37 = load i32, ptr %36, align 4
  %38 = load i32, ptr %12, align 4
  %39 = call ptr (ptr, i32, ptr, i32, i32, i32, ptr, ...) @proto_tree_add_uint_format(ptr noundef %33, i32 noundef %34, ptr noundef %35, i32 noundef %37, i32 noundef 4, i32 noundef %38, ptr noundef @.str.116)
  store ptr %39, ptr %14, align 8
  %40 = load i32, ptr %12, align 4
  %41 = icmp eq i32 %40, 0
  br i1 %41, label %42, label %44

42:                                               ; preds = %5
  %43 = load ptr, ptr %14, align 8
  call void (ptr, ptr, ...) @proto_item_append_text(ptr noundef %43, ptr noundef @.str.117)
  br label %44

44:                                               ; preds = %42, %5
  store i32 0, ptr %11, align 4
  br label %45

45:                                               ; preds = %59, %44
  %46 = load i32, ptr %11, align 4
  %47 = icmp slt i32 %46, 32
  br i1 %47, label %48, label %62

48:                                               ; preds = %45
  %49 = load i32, ptr %11, align 4
  %50 = shl i32 1, %49
  %51 = load i32, ptr %12, align 4
  %52 = and i32 %50, %51
  %53 = icmp ne i32 %52, 0
  br i1 %53, label %54, label %58

54:                                               ; preds = %48
  %55 = load ptr, ptr %14, align 8
  %56 = load i32, ptr %11, align 4
  %57 = add i32 %56, 1
  store i32 %57, ptr %11, align 4
  call void (ptr, ptr, ...) @proto_item_append_text(ptr noundef %55, ptr noundef @.str.118, i32 noundef %56)
  br label %62

58:                                               ; preds = %48
  br label %59

59:                                               ; preds = %58
  %60 = load i32, ptr %11, align 4
  %61 = add i32 %60, 1
  store i32 %61, ptr %11, align 4
  br label %45, !llvm.loop !4

62:                                               ; preds = %54, %45
  br label %63

63:                                               ; preds = %103, %62
  %64 = load i32, ptr %11, align 4
  %65 = icmp slt i32 %64, 32
  br i1 %65, label %66, label %106

66:                                               ; preds = %63
  %67 = load i32, ptr %11, align 4
  %68 = shl i32 1, %67
  %69 = load i32, ptr %12, align 4
  %70 = and i32 %68, %69
  %71 = icmp ne i32 %70, 0
  br i1 %71, label %73, label %72

72:                                               ; preds = %66
  br label %103

73:                                               ; preds = %66
  %74 = load i32, ptr %11, align 4
  %75 = sub i32 %74, 1
  %76 = shl i32 1, %75
  %77 = load i32, ptr %12, align 4
  %78 = and i32 %76, %77
  %79 = icmp ne i32 %78, 0
  br i1 %79, label %83, label %80

80:                                               ; preds = %73
  %81 = load ptr, ptr %14, align 8
  %82 = load i32, ptr %11, align 4
  call void (ptr, ptr, ...) @proto_item_append_text(ptr noundef %81, ptr noundef @.str.119, i32 noundef %82)
  br label %83

83:                                               ; preds = %80, %73
  %84 = load i32, ptr %11, align 4
  %85 = shl i32 2, %84
  %86 = load i32, ptr %12, align 4
  %87 = and i32 %85, %86
  %88 = icmp ne i32 %87, 0
  br i1 %88, label %89, label %102

89:                                               ; preds = %83
  br label %90

90:                                               ; preds = %96, %89
  %91 = load i32, ptr %11, align 4
  %92 = shl i32 2, %91
  %93 = load i32, ptr %12, align 4
  %94 = and i32 %92, %93
  %95 = icmp ne i32 %94, 0
  br i1 %95, label %96, label %99

96:                                               ; preds = %90
  %97 = load i32, ptr %11, align 4
  %98 = add i32 %97, 1
  store i32 %98, ptr %11, align 4
  br label %90, !llvm.loop !6

99:                                               ; preds = %90
  %100 = load ptr, ptr %14, align 8
  %101 = load i32, ptr %11, align 4
  call void (ptr, ptr, ...) @proto_item_append_text(ptr noundef %100, ptr noundef @.str.120, i32 noundef %101)
  br label %102

102:                                              ; preds = %99, %83
  br label %103

103:                                              ; preds = %102, %72
  %104 = load i32, ptr %11, align 4
  %105 = add i32 %104, 1
  store i32 %105, ptr %11, align 4
  br label %63, !llvm.loop !7

106:                                              ; preds = %63
  %107 = load ptr, ptr %8, align 8
  %108 = load i32, ptr %107, align 4
  %109 = add i32 %108, 4
  store i32 %109, ptr %107, align 4
  %110 = load i32, ptr %12, align 4
  ret i32 %110
}