; Function Attrs: nounwind uwtable
define hidden range(i32 0, 134217728) i32 @zdp_parse_chanmask(ptr noundef %0, ptr noundef %1, ptr noundef captures(none) %2, i32 noundef %3, i32 noundef %4) local_unnamed_addr #0 {
  %6 = load i32, ptr %2, align 4
  %7 = tail call i32 @tvb_get_letohl(ptr noundef %1, i32 noundef %6) #4
  %8 = lshr i32 %7, 27
  %9 = and i32 %7, 134217727
  %10 = load i32, ptr %2, align 4
  %11 = tail call ptr @proto_tree_add_uint(ptr noundef %0, i32 noundef %3, ptr noundef %1, i32 noundef %10, i32 noundef 4, i32 noundef %8) #4
  %12 = load i32, ptr %2, align 4
  %13 = tail call ptr (ptr, i32, ptr, i32, i32, i32, ptr, ...) @proto_tree_add_uint_format(ptr noundef %0, i32 noundef %4, ptr noundef %1, i32 noundef %12, i32 noundef 4, i32 noundef %9, ptr noundef nonnull @.str.116) #4
  %14 = icmp eq i32 %9, 0
  br i1 %14, label %15, label %.preheader51

15:                                               ; preds = %5
  tail call void (ptr, ptr, ...) @proto_item_append_text(ptr noundef %13, ptr noundef nonnull @.str.117) #4
  br label %.preheader51

.preheader51:                                     ; preds = %15, %5
  br label %16

16:                                               ; preds = %.preheader51, %19
  %.043 = phi i32 [ %20, %19 ], [ 0, %.preheader51 ]
  %17 = shl nuw i32 1, %.043
  %18 = and i32 %17, %9
  %.not = icmp eq i32 %18, 0
  br i1 %.not, label %19, label %.loopexit

19:                                               ; preds = %16
  %20 = add nuw nsw i32 %.043, 1
  %exitcond.not = icmp eq i32 %20, 32
  br i1 %exitcond.not, label %._crit_edge, label %16, !llvm.loop !4

.loopexit:                                        ; preds = %16
  tail call void (ptr, ptr, ...) @proto_item_append_text(ptr noundef %13, ptr noundef nonnull @.str.118, i32 noundef %.043) #4
  %21 = icmp samesign ult i32 %.043, 31
  br i1 %21, label %.lr.ph.preheader, label %._crit_edge

.lr.ph.preheader:                                 ; preds = %.loopexit
  %22 = add nuw nsw i32 %.043, 1
  br label %.lr.ph

.lr.ph:                                           ; preds = %.lr.ph.preheader, %37
  %.244 = phi i32 [ %38, %37 ], [ %22, %.lr.ph.preheader ]
  %23 = shl nuw i32 1, %.244
  %24 = and i32 %23, %9
  %.not38 = icmp eq i32 %24, 0
  br i1 %.not38, label %37, label %25

25:                                               ; preds = %.lr.ph
  %26 = add i32 %.244, -1
  %27 = shl nuw nsw i32 1, %26
  %28 = and i32 %27, %9
  %.not39 = icmp eq i32 %28, 0
  br i1 %.not39, label %29, label %30

29:                                               ; preds = %25
  tail call void (ptr, ptr, ...) @proto_item_append_text(ptr noundef %13, ptr noundef nonnull @.str.119, i32 noundef %.244) #4
  br label %30

30:                                               ; preds = %29, %25
  %31 = shl i32 2, %.244
  %32 = and i32 %31, %9
  %.not40 = icmp eq i32 %32, 0
  br i1 %.not40, label %37, label %.preheader

.preheader:                                       ; preds = %30, %.preheader
  %.4 = phi i32 [ %35, %.preheader ], [ %.244, %30 ]
  %33 = shl i32 2, %.4
  %34 = and i32 %33, %9
  %.not41 = icmp eq i32 %34, 0
  %35 = add i32 %.4, 1
  br i1 %.not41, label %36, label %.preheader, !llvm.loop !6

36:                                               ; preds = %.preheader
  tail call void (ptr, ptr, ...) @proto_item_append_text(ptr noundef %13, ptr noundef nonnull @.str.120, i32 noundef %.4) #4
  br label %37

37:                                               ; preds = %30, %36, %.lr.ph
  %.3 = phi i32 [ %.4, %36 ], [ %.244, %30 ], [ %.244, %.lr.ph ]
  %38 = add i32 %.3, 1
  %39 = icmp slt i32 %38, 32
  br i1 %39, label %.lr.ph, label %._crit_edge, !llvm.loop !7

._crit_edge:                                      ; preds = %19, %37, %.loopexit
  %40 = load i32, ptr %2, align 4
  %41 = add i32 %40, 4
  store i32 %41, ptr %2, align 4
  ret i32 %9
}